target datalayout = "e-m:e-p270:32:32-p271:32:32-p272:64:64-i64:64-i128:128-f80:128-n8:16:32:64-S128"
target triple = "x86_64-pc-linux-gnu"

; Function Attrs: nounwind uwtable
define internal i32 @sum_abs_dctelem_c(ptr noundef %0) #2 {
  %2 = alloca ptr, align 8
  %3 = alloca i32, align 4
  %4 = alloca i32, align 4
  store ptr %0, ptr %2, align 8, !tbaa !32
  call void @llvm.lifetime.start.p0(i64 4, ptr %3) #9
  store i32 0, ptr %3, align 4, !tbaa !11
  call void @llvm.lifetime.start.p0(i64 4, ptr %4) #9
  store i32 0, ptr %4, align 4, !tbaa !11
  br label %5

5:                                                ; preds = %35, %1
  %6 = load i32, ptr %4, align 4, !tbaa !11
  %7 = icmp slt i32 %6, 64
  br i1 %7, label %8, label %38

8:                                                ; preds = %5
  %9 = load ptr, ptr %2, align 8, !tbaa !32
  %10 = load i32, ptr %4, align 4, !tbaa !11
  %11 = sext i32 %10 to i64
  %12 = getelementptr inbounds i16, ptr %9, i64 %11
  %13 = load i16, ptr %12, align 2, !tbaa !34
  %14 = sext i16 %13 to i32
  %15 = icmp sge i32 %14, 0
  br i1 %15, label %16, label %23

16:                                               ; preds = %8
  %17 = load ptr, ptr %2, align 8, !tbaa !32
  %18 = load i32, ptr %4, align 4, !tbaa !11
  %19 = sext i32 %18 to i64
  %20 = getelementptr inbounds i16, ptr %17, i64 %19
  %21 = load i16, ptr %20, align 2, !tbaa !34
  %22 = sext i16 %21 to i32
  br label %31

23:                                               ; preds = %8
  %24 = load ptr, ptr %2, align 8, !tbaa !32
  %25 = load i32, ptr %4, align 4, !tbaa !11
  %26 = sext i32 %25 to i64
  %27 = getelementptr inbounds i16, ptr %24, i64 %26
  %28 = load i16, ptr %27, align 2, !tbaa !34
  %29 = sext i16 %28 to i32
  %30 = sub nsw i32 0, %29
  br label %31

31:                                               ; preds = %23, %16
  %32 = phi i32 [ %22, %16 ], [ %30, %23 ]
  %33 = load i32, ptr %3, align 4, !tbaa !11
  %34 = add nsw i32 %33, %32
  store i32 %34, ptr %3, align 4, !tbaa !11
  br label %35

35:                                               ; preds = %31
  %36 = load i32, ptr %4, align 4, !tbaa !11
  %37 = add nsw i32 %36, 1
  store i32 %37, ptr %4, align 4, !tbaa !11
  br label %5, !llvm.loop !35

38:                                               ; preds = %5
  %39 = load i32, ptr %3, align 4, !tbaa !11
  call void @llvm.lifetime.end.p0(i64 4, ptr %4) #9
  call void @llvm.lifetime.end.p0(i64 4, ptr %3) #9
  ret i32 %39
}