; Function Attrs: nofree norecurse nosync nounwind memory(argmem: read) uwtable
define internal i32 @sum_abs_dctelem_c(ptr noundef readonly captures(none) %0) #5 {
  br label %2

2:                                                ; preds = %1, %2
  %indvars.iv = phi i64 [ 0, %1 ], [ %indvars.iv.next, %2 ]
  %.0911 = phi i32 [ 0, %1 ], [ %7, %2 ]
  %3 = getelementptr inbounds nuw i16, ptr %0, i64 %indvars.iv
  %4 = load i16, ptr %3, align 2, !tbaa !18
  %5 = tail call i16 @llvm.abs.i16(i16 %4, i1 false)
  %6 = zext i16 %5 to i32
  %7 = add nuw nsw i32 %.0911, %6
  %indvars.iv.next = add nuw nsw i64 %indvars.iv, 1
  %exitcond.not = icmp eq i64 %indvars.iv.next, 64
  br i1 %exitcond.not, label %8, label %2, !llvm.loop !19

8:                                                ; preds = %2
  ret i32 %7
}